; Function Attrs: null_pointer_is_valid sspstrong uwtable
define internal i32 @dissect_atm_oam_llc(ptr noundef %0, ptr noundef %1, ptr noundef %2, ptr noundef %3) #0 {
  %5 = ptrtoint ptr %3 to i64
  %6 = and i64 %5, 4294967295
  %.not = icmp eq i64 %6, 0
  %llc_handle.val = load ptr, ptr @llc_handle, align 8
  %atm_oam_handle.val = load ptr, ptr @atm_oam_handle, align 8
  %7 = select i1 %.not, ptr %llc_handle.val, ptr %atm_oam_handle.val
  %8 = tail call i32 @call_dissector(ptr noundef %7, ptr noundef %0, ptr noundef %1, ptr noundef %2)
  %9 = tail call i32 @tvb_captured_length(ptr noundef %0)
  ret i32 %9
}